target datalayout = "e-m:e-p270:32:32-p271:32:32-p272:64:64-i64:64-i128:128-f80:128-n8:16:32:64-S128"
target triple = "x86_64-unknown-linux-gnu"

%struct.QIOChannelClass = type { %struct.ObjectClass, ptr, ptr, ptr, ptr, ptr, ptr, ptr, ptr, ptr, ptr, ptr }
%struct.ObjectClass = type { ptr, ptr, [4 x ptr], [4 x ptr], ptr, ptr }

@.str.2 = private unnamed_addr constant [12 x i8] c"qio-channel\00", align 1
@.str.3 = private unnamed_addr constant [99 x i8] c"/home/dtcxzyw/WorkSpace/Projects/compilers/llvm-opt-benchmark/bench/qemu/qemu/include/io/channel.h\00", align 1
@__func__.QIO_CHANNEL_CLASS = private unnamed_addr constant [18 x i8] c"QIO_CHANNEL_CLASS\00", align 1

; Function Attrs: nounwind sspstrong uwtable
define internal ptr @QIO_CHANNEL_CLASS(ptr noundef %klass) #0 {
entry:
  %klass.addr = alloca ptr, align 8
  store ptr %klass, ptr %klass.addr, align 8
  %0 = load ptr, ptr %klass.addr, align 8
  %call = call ptr @object_class_dynamic_cast_assert(ptr noundef %0, ptr noundef @.str.2, ptr noundef @.str.3, i32 noundef 30, ptr noundef @__func__.QIO_CHANNEL_CLASS)
  ret ptr %call
}

; Function Attrs: nounwind sspstrong uwtable
define internal void @qio_channel_websock_class_init(ptr noundef %klass, ptr noundef %class_data) #0 {
entry:
  %klass.addr = alloca ptr, align 8
  %class_data.addr = alloca ptr, align 8
  %ioc_klass = alloca ptr, align 8
  store ptr %klass, ptr %klass.addr, align 8
  store ptr %class_data, ptr %class_data.addr, align 8
  %0 = load ptr, ptr %klass.addr, align 8
  %call = call ptr @QIO_CHANNEL_CLASS(ptr noundef %0)
  store ptr %call, ptr %ioc_klass, align 8
  %1 = load ptr, ptr %ioc_klass, align 8
  %io_writev = getelementptr inbounds %struct.QIOChannelClass, ptr %1, i32 0, i32 1
  store ptr @qio_channel_websock_writev, ptr %io_writev, align 8
  %2 = load ptr, ptr %ioc_klass, align 8
  %io_readv = getelementptr inbounds %struct.QIOChannelClass, ptr %2, i32 0, i32 2
  store ptr @qio_channel_websock_readv, ptr %io_readv, align 8
  %3 = load ptr, ptr %ioc_klass, align 8
  %io_set_blocking = getelementptr inbounds %struct.QIOChannelClass, ptr %3, i32 0, i32 5
  store ptr @qio_channel_websock_set_blocking, ptr %io_set_blocking, align 8
  %4 = load ptr, ptr %ioc_klass, align 8
  %io_set_cork = getelementptr inbounds %struct.QIOChannelClass, ptr %4, i32 0, i32 7
  store ptr @qio_channel_websock_set_cork, ptr %io_set_cork, align 8
  %5 = load ptr, ptr %ioc_klass, align 8
  %io_set_delay = getelementptr inbounds %struct.QIOChannelClass, ptr %5, i32 0, i32 8
  store ptr @qio_channel_websock_set_delay, ptr %io_set_delay, align 8
  %6 = load ptr, ptr %ioc_klass, align 8
  %io_close = getelementptr inbounds %struct.QIOChannelClass, ptr %6, i32 0, i32 3
  store ptr @qio_channel_websock_close, ptr %io_close, align 8
  %7 = load ptr, ptr %ioc_klass, align 8
  %io_shutdown = getelementptr inbounds %struct.QIOChannelClass, ptr %7, i32 0, i32 6
  store ptr @qio_channel_websock_shutdown, ptr %io_shutdown, align 8
  %8 = load ptr, ptr %ioc_klass, align 8
  %io_create_watch = getelementptr inbounds %struct.QIOChannelClass, ptr %8, i32 0, i32 4
  store ptr @qio_channel_websock_create_watch, ptr %io_create_watch, align 8
  ret void
}