; Function Attrs: nounwind sspstrong uwtable
define internal void @qio_channel_websock_class_init(ptr noundef %klass, ptr readnone captures(none) %class_data) #0 {
entry:
  %call.i = tail call ptr @object_class_dynamic_cast_assert(ptr noundef %klass, ptr noundef nonnull @.str.2, ptr noundef nonnull @.str.3, i32 noundef 30, ptr noundef nonnull @__func__.QIO_CHANNEL_CLASS) #15
  %io_writev = getelementptr inbounds nuw i8, ptr %call.i, i64 96
  store ptr @qio_channel_websock_writev, ptr %io_writev, align 8
  %io_readv = getelementptr inbounds nuw i8, ptr %call.i, i64 104
  store ptr @qio_channel_websock_readv, ptr %io_readv, align 8
  %io_set_blocking = getelementptr inbounds nuw i8, ptr %call.i, i64 128
  store ptr @qio_channel_websock_set_blocking, ptr %io_set_blocking, align 8
  %io_set_cork = getelementptr inbounds nuw i8, ptr %call.i, i64 144
  store ptr @qio_channel_websock_set_cork, ptr %io_set_cork, align 8
  %io_set_delay = getelementptr inbounds nuw i8, ptr %call.i, i64 152
  store ptr @qio_channel_websock_set_delay, ptr %io_set_delay, align 8
  %io_close = getelementptr inbounds nuw i8, ptr %call.i, i64 112
  store ptr @qio_channel_websock_close, ptr %io_close, align 8
  %io_shutdown = getelementptr inbounds nuw i8, ptr %call.i, i64 136
  store ptr @qio_channel_websock_shutdown, ptr %io_shutdown, align 8
  %io_create_watch = getelementptr inbounds nuw i8, ptr %call.i, i64 120
  store ptr @qio_channel_websock_create_watch, ptr %io_create_watch, align 8
  ret void
}